; Function Attrs: mustprogress uwtable
define void @_ZN3zmq20stream_engine_base_t14restart_outputEv(ptr noundef nonnull align 8 dereferenceable(1689) %this) unnamed_addr #0 align 2 {
entry:
  %_io_error = getelementptr inbounds i8, ptr %this, i64 1664
  %0 = load i8, ptr %_io_error, align 8
  %1 = and i8 %0, 1
  %tobool.not = icmp eq i8 %1, 0
  br i1 %tobool.not, label %if.end, label %return

if.end:                                           ; preds = %entry
  %_output_stopped = getelementptr inbounds i8, ptr %this, i64 1457
  %2 = load i8, ptr %_output_stopped, align 1
  %3 = and i8 %2, 1
  %tobool2.not = icmp eq i8 %3, 0
  br i1 %tobool2.not, label %if.end5, label %if.then3

if.then3:                                         ; preds = %if.end
  %_handle.i = getelementptr inbounds i8, ptr %this, i64 1584
  %4 = load ptr, ptr %_handle.i, align 8
  tail call void @_ZN3zmq11io_object_t11set_polloutEPv(ptr noundef nonnull align 8 dereferenceable(16) %this, ptr noundef %4)
  store i8 0, ptr %_output_stopped, align 1
  br label %if.end5

if.end5:                                          ; preds = %if.then3, %if.end
  %vtable = load ptr, ptr %this, align 8
  %vfn = getelementptr inbounds i8, ptr %vtable, i64 24
  %5 = load ptr, ptr %vfn, align 8
  tail call void %5(ptr noundef nonnull align 8 dereferenceable(1689) %this)
  br label %return

return:                                           ; preds = %entry, %if.end5
  ret void
}